; ModuleID = '13/653.c'
source_filename = "13/653.c"
target datalayout = "e-m:e-p270:32:32-p271:32:32-p272:64:64-i64:64-f80:128-n8:16:32:64-S128"
target triple = "x86_64-pc-linux-gnu"

@.str = private unnamed_addr constant [3 x i8] c"%d\00", align 1
@.str.1 = private unnamed_addr constant [4 x i8] c" %d\00", align 1
@.str.2 = private unnamed_addr constant [2 x i8] c"\0A\00", align 1

; Function Attrs: noinline nounwind uwtable
define dso_local i32 @compare(i32 %0, i32* %1, i32 %2) #0 {
  %4 = alloca i32, align 4
  %5 = alloca i32, align 4
  %6 = alloca i32*, align 8
  %7 = alloca i32, align 4
  %8 = alloca i32, align 4
  %9 = alloca i32, align 4
  store i32 %0, i32* %5, align 4
  store i32* %1, i32** %6, align 8
  store i32 %2, i32* %7, align 4
  store i32 0, i32* %9, align 4
  store i32 0, i32* %8, align 4
  br label %10

10:                                               ; preds = %24, %3
  %11 = load i32, i32* %8, align 4
  %12 = load i32, i32* %7, align 4
  %13 = icmp slt i32 %11, %12
  br i1 %13, label %14, label %27

14:                                               ; preds = %10
  %15 = load i32, i32* %5, align 4
  %16 = load i32*, i32** %6, align 8
  %17 = load i32, i32* %8, align 4
  %18 = sext i32 %17 to i64
  %19 = getelementptr inbounds i32, i32* %16, i64 %18
  %20 = load i32, i32* %19, align 4
  %21 = icmp eq i32 %15, %20
  br i1 %21, label %22, label %23

22:                                               ; preds = %14
  store i32 1, i32* %4, align 4
  br label %29

23:                                               ; preds = %14
  br label %24

24:                                               ; preds = %23
  %25 = load i32, i32* %8, align 4
  %26 = add nsw i32 %25, 1
  store i32 %26, i32* %8, align 4
  br label %10

27:                                               ; preds = %10
  store i32 0, i32* %9, align 4
  br i1 false, label %28, label %29

28:                                               ; preds = %27
  store i32 0, i32* %4, align 4
  br label %29

29:                                               ; preds = %22, %28, %27
  %30 = load i32, i32* %4, align 4
  ret i32 %30
}

; Function Attrs: noinline nounwind uwtable
define dso_local i32 @main() #0 {
  %1 = alloca i32, align 4
  %2 = alloca i32, align 4
  %3 = alloca [20000 x i32], align 16
  %4 = alloca i32, align 4
  %5 = alloca i32, align 4
  %6 = alloca i32, align 4
  store i32 0, i32* %1, align 4
  store i32 0, i32* %6, align 4
  %7 = call i32 (i8*, ...) @__isoc99_scanf(i8* getelementptr inbounds ([3 x i8], [3 x i8]* @.str, i64 0, i64 0), i32* %2)
  store i32 0, i32* %4, align 4
  br label %8

8:                                                ; preds = %31, %0
  %9 = load i32, i32* %4, align 4
  %10 = load i32, i32* %2, align 4
  %11 = icmp slt i32 %9, %10
  br i1 %11, label %12, label %34

12:                                               ; preds = %8
  %13 = load i32, i32* %4, align 4
  %14 = sext i32 %13 to i64
  %15 = getelementptr inbounds [20000 x i32], [20000 x i32]* %3, i64 0, i64 %14
  %16 = call i32 (i8*, ...) @__isoc99_scanf(i8* getelementptr inbounds ([3 x i8], [3 x i8]* @.str, i64 0, i64 0), i32* %15)
  %17 = load i32, i32* %4, align 4
  %18 = sext i32 %17 to i64
  %19 = getelementptr inbounds [20000 x i32], [20000 x i32]* %3, i64 0, i64 %18
  %20 = load i32, i32* %19, align 4
  %21 = getelementptr inbounds [20000 x i32], [20000 x i32]* %3, i64 0, i64 0
  %22 = load i32, i32* %4, align 4
  %23 = call i32 @compare(i32 %20, i32* %21, i32 %22)
  %24 = icmp eq i32 %23, 1
  br i1 %24, label %25, label %29

25:                                               ; preds = %12
  %26 = load i32, i32* %4, align 4
  %27 = sext i32 %26 to i64
  %28 = getelementptr inbounds [20000 x i32], [20000 x i32]* %3, i64 0, i64 %27
  store i32 -1, i32* %28, align 4
  br label %30

29:                                               ; preds = %12
  br label %31

30:                                               ; preds = %25
  br label %31

31:                                               ; preds = %30, %29
  %32 = load i32, i32* %4, align 4
  %33 = add nsw i32 %32, 1
  store i32 %33, i32* %4, align 4
  br label %8

34:                                               ; preds = %8
  store i32 0, i32* %4, align 4
  br label %35

35:                                               ; preds = %65, %34
  %36 = load i32, i32* %4, align 4
  %37 = load i32, i32* %2, align 4
  %38 = icmp slt i32 %36, %37
  br i1 %38, label %39, label %68

39:                                               ; preds = %35
  %40 = load i32, i32* %4, align 4
  %41 = sext i32 %40 to i64
  %42 = getelementptr inbounds [20000 x i32], [20000 x i32]* %3, i64 0, i64 %41
  %43 = load i32, i32* %42, align 4
  %44 = icmp eq i32 %43, -1
  br i1 %44, label %45, label %46

45:                                               ; preds = %39
  br label %65

46:                                               ; preds = %39
  %47 = load i32, i32* %6, align 4
  %48 = icmp eq i32 %47, 0
  br i1 %48, label %49, label %55

49:                                               ; preds = %46
  %50 = load i32, i32* %4, align 4
  %51 = sext i32 %50 to i64
  %52 = getelementptr inbounds [20000 x i32], [20000 x i32]* %3, i64 0, i64 %51
  %53 = load i32, i32* %52, align 4
  %54 = call i32 (i8*, ...) @printf(i8* getelementptr inbounds ([3 x i8], [3 x i8]* @.str, i64 0, i64 0), i32 %53)
  br label %61

55:                                               ; preds = %46
  %56 = load i32, i32* %4, align 4
  %57 = sext i32 %56 to i64
  %58 = getelementptr inbounds [20000 x i32], [20000 x i32]* %3, i64 0, i64 %57
  %59 = load i32, i32* %58, align 4
  %60 = call i32 (i8*, ...) @printf(i8* getelementptr inbounds ([4 x i8], [4 x i8]* @.str.1, i64 0, i64 0), i32 %59)
  br label %61

61:                                               ; preds = %55, %49
  %62 = load i32, i32* %6, align 4
  %63 = add nsw i32 %62, 1
  store i32 %63, i32* %6, align 4
  br label %64

64:                                               ; preds = %61
  br label %65

65:                                               ; preds = %64, %45
  %66 = load i32, i32* %4, align 4
  %67 = add nsw i32 %66, 1
  store i32 %67, i32* %4, align 4
  br label %35

68:                                               ; preds = %35
  %69 = call i32 (i8*, ...) @printf(i8* getelementptr inbounds ([2 x i8], [2 x i8]* @.str.2, i64 0, i64 0))
  ret i32 0
}

declare dso_local i32 @__isoc99_scanf(i8*, ...) #1

declare dso_local i32 @printf(i8*, ...) #1


!llvm.module.flags = !{!0}
!llvm.ident = !{!1}

!0 = !{i32 1, !"wchar_size", i32 4}
!1 = !{!"clang version 10.0.0-4ubuntu1 "}
